target datalayout = "e-m:e-p270:32:32-p271:32:32-p272:64:64-i64:64-i128:128-f80:128-n8:16:32:64-S128"
target triple = "x86_64-unknown-linux-gnu"

%"class.std::__cxx11::basic_string" = type { %"struct.std::__cxx11::basic_string<char>::_Alloc_hider", i64, %union.anon }
%"struct.std::__cxx11::basic_string<char>::_Alloc_hider" = type { ptr }
%union.anon = type { i64, [8 x i8] }
%"class.Assimp::XFileExporter" = type { ptr, %"class.std::__cxx11::basic_stringstream", ptr, ptr, %"class.std::__cxx11::basic_string", %"class.std::__cxx11::basic_string", ptr, i8, %"class.std::__cxx11::basic_string", %"class.std::__cxx11::basic_string" }
%"class.std::__cxx11::basic_stringstream" = type { %"class.std::basic_iostream.base", %"class.std::__cxx11::basic_stringbuf", %"class.std::basic_ios" }
%"class.std::basic_iostream.base" = type { %"class.std::basic_istream.base", %"class.std::basic_ostream.base" }
%"class.std::basic_istream.base" = type { ptr, i64 }
%"class.std::basic_ostream.base" = type { ptr }
%"class.std::__cxx11::basic_stringbuf" = type { %"class.std::basic_streambuf", i32, %"class.std::__cxx11::basic_string" }
%"class.std::basic_streambuf" = type { ptr, ptr, ptr, ptr, ptr, ptr, ptr, %"class.std::locale" }
%"class.std::locale" = type { ptr }
%"class.std::basic_ios" = type { %"class.std::ios_base", ptr, i8, i8, ptr, ptr, ptr, ptr }
%"class.std::ios_base" = type { ptr, i64, i64, i32, i32, i32, ptr, %"struct.std::ios_base::_Words", [8 x %"struct.std::ios_base::_Words"], i32, ptr, %"class.std::locale" }
%"struct.std::ios_base::_Words" = type { ptr, i64 }
%class.aiMatrix4x4t = type { float, float, float, float, float, float, float, float, float, float, float, float, float, float, float, float }
%struct.aiScene = type { i32, ptr, i32, ptr, i32, ptr, i32, ptr, i32, ptr, i32, ptr, i32, ptr, ptr, %struct.aiString, i32, ptr, ptr }
%struct.aiString = type { i32, [1024 x i8] }

@.str.6 = private unnamed_addr constant [18 x i8] c"Frame DXCC_ROOT {\00", align 1
@.str.7 = private unnamed_addr constant [2 x i8] c"}\00", align 1
@.str.103 = private unnamed_addr constant [3 x i8] c"  \00", align 1

; Function Attrs: mustprogress nounwind uwtable
define linkonce_odr noundef i32 @_ZStorSt13_Ios_FmtflagsS_(i32 noundef %__a, i32 noundef %__b) #0 comdat {
entry:
  %__a.addr = alloca i32, align 4
  %__b.addr = alloca i32, align 4
  store i32 %__a, ptr %__a.addr, align 4
  store i32 %__b, ptr %__b.addr, align 4
  %0 = load i32, ptr %__a.addr, align 4
  %1 = load i32, ptr %__b.addr, align 4
  %or = or i32 %0, %1
  ret i32 %or
}

; Function Attrs: mustprogress uwtable
define linkonce_odr noundef nonnull align 4 dereferenceable(4) ptr @_ZStoRRSt13_Ios_FmtflagsS_(ptr noundef nonnull align 4 dereferenceable(4) %__a, i32 noundef %__b) #2 comdat {
entry:
  %__a.addr = alloca ptr, align 8
  %__b.addr = alloca i32, align 4
  store ptr %__a, ptr %__a.addr, align 8
  store i32 %__b, ptr %__b.addr, align 4
  %0 = load ptr, ptr %__a.addr, align 8
  %1 = load i32, ptr %0, align 4
  %2 = load i32, ptr %__b.addr, align 4
  %call = call noundef i32 @_ZStorSt13_Ios_FmtflagsS_(i32 noundef %1, i32 noundef %2)
  %3 = load ptr, ptr %__a.addr, align 8
  store i32 %call, ptr %3, align 4
  ret ptr %3
}

; Function Attrs: mustprogress uwtable
define linkonce_odr hidden void @_ZN6Assimp13XFileExporter6PopTagEv(ptr noundef nonnull align 8 dereferenceable(560) %this) #2 comdat align 2 {
entry:
  %this.addr = alloca ptr, align 8
  store ptr %this, ptr %this.addr, align 8
  %this1 = load ptr, ptr %this.addr, align 8
  %startstr = getelementptr inbounds %"class.Assimp::XFileExporter", ptr %this1, i32 0, i32 8
  %startstr2 = getelementptr inbounds %"class.Assimp::XFileExporter", ptr %this1, i32 0, i32 8
  %call = call noundef i64 @_ZNKSt7__cxx1112basic_stringIcSt11char_traitsIcESaIcEE6lengthEv(ptr noundef nonnull align 8 dereferenceable(32) %startstr2) #11
  %sub = sub i64 %call, 2
  %call3 = call noundef nonnull align 8 dereferenceable(32) ptr @_ZNSt7__cxx1112basic_stringIcSt11char_traitsIcESaIcEE5eraseEmm(ptr noundef nonnull align 8 dereferenceable(32) %startstr, i64 noundef %sub, i64 noundef -1)
  ret void
}

; Function Attrs: mustprogress nounwind uwtable
define linkonce_odr hidden void @_ZN12aiMatrix4x4tIfEC2Ev(ptr noundef nonnull align 4 dereferenceable(64) %this) unnamed_addr #0 comdat align 2 {
entry:
  %this.addr = alloca ptr, align 8
  store ptr %this, ptr %this.addr, align 8
  %this1 = load ptr, ptr %this.addr, align 8
  %a1 = getelementptr inbounds %class.aiMatrix4x4t, ptr %this1, i32 0, i32 0
  store float 1.000000e+00, ptr %a1, align 4
  %a2 = getelementptr inbounds %class.aiMatrix4x4t, ptr %this1, i32 0, i32 1
  store float 0.000000e+00, ptr %a2, align 4
  %a3 = getelementptr inbounds %class.aiMatrix4x4t, ptr %this1, i32 0, i32 2
  store float 0.000000e+00, ptr %a3, align 4
  %a4 = getelementptr inbounds %class.aiMatrix4x4t, ptr %this1, i32 0, i32 3
  store float 0.000000e+00, ptr %a4, align 4
  %b1 = getelementptr inbounds %class.aiMatrix4x4t, ptr %this1, i32 0, i32 4
  store float 0.000000e+00, ptr %b1, align 4
  %b2 = getelementptr inbounds %class.aiMatrix4x4t, ptr %this1, i32 0, i32 5
  store float 1.000000e+00, ptr %b2, align 4
  %b3 = getelementptr inbounds %class.aiMatrix4x4t, ptr %this1, i32 0, i32 6
  store float 0.000000e+00, ptr %b3, align 4
  %b4 = getelementptr inbounds %class.aiMatrix4x4t, ptr %this1, i32 0, i32 7
  store float 0.000000e+00, ptr %b4, align 4
  %c1 = getelementptr inbounds %class.aiMatrix4x4t, ptr %this1, i32 0, i32 8
  store float 0.000000e+00, ptr %c1, align 4
  %c2 = getelementptr inbounds %class.aiMatrix4x4t, ptr %this1, i32 0, i32 9
  store float 0.000000e+00, ptr %c2, align 4
  %c3 = getelementptr inbounds %class.aiMatrix4x4t, ptr %this1, i32 0, i32 10
  store float 1.000000e+00, ptr %c3, align 4
  %c4 = getelementptr inbounds %class.aiMatrix4x4t, ptr %this1, i32 0, i32 11
  store float 0.000000e+00, ptr %c4, align 4
  %d1 = getelementptr inbounds %class.aiMatrix4x4t, ptr %this1, i32 0, i32 12
  store float 0.000000e+00, ptr %d1, align 4
  %d2 = getelementptr inbounds %class.aiMatrix4x4t, ptr %this1, i32 0, i32 13
  store float 0.000000e+00, ptr %d2, align 4
  %d3 = getelementptr inbounds %class.aiMatrix4x4t, ptr %this1, i32 0, i32 14
  store float 0.000000e+00, ptr %d3, align 4
  %d4 = getelementptr inbounds %class.aiMatrix4x4t, ptr %this1, i32 0, i32 15
  store float 1.000000e+00, ptr %d4, align 4
  ret void
}

; Function Attrs: mustprogress uwtable
define linkonce_odr hidden void @_ZN6Assimp13XFileExporter7PushTagEv(ptr noundef nonnull align 8 dereferenceable(560) %this) #2 comdat align 2 {
entry:
  %this.addr = alloca ptr, align 8
  store ptr %this, ptr %this.addr, align 8
  %this1 = load ptr, ptr %this.addr, align 8
  %startstr = getelementptr inbounds %"class.Assimp::XFileExporter", ptr %this1, i32 0, i32 8
  %call = call noundef nonnull align 8 dereferenceable(32) ptr @_ZNSt7__cxx1112basic_stringIcSt11char_traitsIcESaIcEE6appendEPKc(ptr noundef nonnull align 8 dereferenceable(32) %startstr, ptr noundef @.str.103)
  ret void
}

; Function Attrs: mustprogress nounwind uwtable
define linkonce_odr noundef i64 @_ZNSt8ios_base9precisionEl(ptr noundef nonnull align 8 dereferenceable(216) %this, i64 noundef %__prec) #0 comdat align 2 {
entry:
  %this.addr = alloca ptr, align 8
  %__prec.addr = alloca i64, align 8
  %__old = alloca i64, align 8
  store ptr %this, ptr %this.addr, align 8
  store i64 %__prec, ptr %__prec.addr, align 8
  %this1 = load ptr, ptr %this.addr, align 8
  %_M_precision = getelementptr inbounds %"class.std::ios_base", ptr %this1, i32 0, i32 1
  %0 = load i64, ptr %_M_precision, align 8
  store i64 %0, ptr %__old, align 8
  %1 = load i64, ptr %__prec.addr, align 8
  %_M_precision2 = getelementptr inbounds %"class.std::ios_base", ptr %this1, i32 0, i32 1
  store i64 %1, ptr %_M_precision2, align 8
  %2 = load i64, ptr %__old, align 8
  ret i64 %2
}

; Function Attrs: mustprogress uwtable
define linkonce_odr noundef i32 @_ZNSt8ios_base4setfESt13_Ios_Fmtflags(ptr noundef nonnull align 8 dereferenceable(216) %this, i32 noundef %__fmtfl) #2 comdat align 2 {
entry:
  %this.addr = alloca ptr, align 8
  %__fmtfl.addr = alloca i32, align 4
  %__old = alloca i32, align 4
  store ptr %this, ptr %this.addr, align 8
  store i32 %__fmtfl, ptr %__fmtfl.addr, align 4
  %this1 = load ptr, ptr %this.addr, align 8
  %_M_flags = getelementptr inbounds %"class.std::ios_base", ptr %this1, i32 0, i32 3
  %0 = load i32, ptr %_M_flags, align 8
  store i32 %0, ptr %__old, align 4
  %1 = load i32, ptr %__fmtfl.addr, align 4
  %_M_flags2 = getelementptr inbounds %"class.std::ios_base", ptr %this1, i32 0, i32 3
  %call = call noundef nonnull align 4 dereferenceable(4) ptr @_ZStoRRSt13_Ios_FmtflagsS_(ptr noundef nonnull align 4 dereferenceable(4) %_M_flags2, i32 noundef %1)
  %2 = load i32, ptr %__old, align 4
  ret i32 %2
}

; Function Attrs: mustprogress uwtable
define hidden void @_ZN6Assimp13XFileExporter9WriteFileEv(ptr noundef nonnull align 8 dereferenceable(560) %this) #2 align 2 {
entry:
  %this.addr = alloca ptr, align 8
  %I = alloca %class.aiMatrix4x4t, align 4
  store ptr %this, ptr %this.addr, align 8
  %this1 = load ptr, ptr %this.addr, align 8
  %mOutput = getelementptr inbounds %"class.Assimp::XFileExporter", ptr %this1, i32 0, i32 1
  %vtable = load ptr, ptr %mOutput, align 8
  %vbase.offset.ptr = getelementptr i8, ptr %vtable, i64 -24
  %vbase.offset = load i64, ptr %vbase.offset.ptr, align 8
  %add.ptr = getelementptr inbounds i8, ptr %mOutput, i64 %vbase.offset
  %call = call noundef i32 @_ZNSt8ios_base4setfESt13_Ios_Fmtflags(ptr noundef nonnull align 8 dereferenceable(216) %add.ptr, i32 noundef 4)
  %mOutput2 = getelementptr inbounds %"class.Assimp::XFileExporter", ptr %this1, i32 0, i32 1
  %vtable3 = load ptr, ptr %mOutput2, align 8
  %vbase.offset.ptr4 = getelementptr i8, ptr %vtable3, i64 -24
  %vbase.offset5 = load i64, ptr %vbase.offset.ptr4, align 8
  %add.ptr6 = getelementptr inbounds i8, ptr %mOutput2, i64 %vbase.offset5
  %call7 = call noundef i64 @_ZNSt8ios_base9precisionEl(ptr noundef nonnull align 8 dereferenceable(216) %add.ptr6, i64 noundef 9)
  call void @_ZN6Assimp13XFileExporter11WriteHeaderEv(ptr noundef nonnull align 8 dereferenceable(560) %this1)
  %mOutput8 = getelementptr inbounds %"class.Assimp::XFileExporter", ptr %this1, i32 0, i32 1
  %add.ptr9 = getelementptr inbounds i8, ptr %mOutput8, i64 16
  %startstr = getelementptr inbounds %"class.Assimp::XFileExporter", ptr %this1, i32 0, i32 8
  %call10 = call noundef nonnull align 8 dereferenceable(8) ptr @_ZStlsIcSt11char_traitsIcESaIcEERSt13basic_ostreamIT_T0_ES7_RKNSt7__cxx1112basic_stringIS4_S5_T1_EE(ptr noundef nonnull align 8 dereferenceable(8) %add.ptr9, ptr noundef nonnull align 8 dereferenceable(32) %startstr)
  %call11 = call noundef nonnull align 8 dereferenceable(8) ptr @_ZStlsISt11char_traitsIcEERSt13basic_ostreamIcT_ES5_PKc(ptr noundef nonnull align 8 dereferenceable(8) %call10, ptr noundef @.str.6)
  %endstr = getelementptr inbounds %"class.Assimp::XFileExporter", ptr %this1, i32 0, i32 9
  %call12 = call noundef nonnull align 8 dereferenceable(8) ptr @_ZStlsIcSt11char_traitsIcESaIcEERSt13basic_ostreamIT_T0_ES7_RKNSt7__cxx1112basic_stringIS4_S5_T1_EE(ptr noundef nonnull align 8 dereferenceable(8) %call11, ptr noundef nonnull align 8 dereferenceable(32) %endstr)
  call void @_ZN6Assimp13XFileExporter7PushTagEv(ptr noundef nonnull align 8 dereferenceable(560) %this1)
  call void @_ZN12aiMatrix4x4tIfEC2Ev(ptr noundef nonnull align 4 dereferenceable(64) %I) #11
  call void @_ZN6Assimp13XFileExporter19WriteFrameTransformER12aiMatrix4x4tIfE(ptr noundef nonnull align 8 dereferenceable(560) %this1, ptr noundef nonnull align 4 dereferenceable(64) %I)
  %mScene = getelementptr inbounds %"class.Assimp::XFileExporter", ptr %this1, i32 0, i32 6
  %0 = load ptr, ptr %mScene, align 8
  %mRootNode = getelementptr inbounds %struct.aiScene, ptr %0, i32 0, i32 1
  %1 = load ptr, ptr %mRootNode, align 8
  call void @_ZN6Assimp13XFileExporter9WriteNodeEP6aiNode(ptr noundef nonnull align 8 dereferenceable(560) %this1, ptr noundef %1)
  call void @_ZN6Assimp13XFileExporter6PopTagEv(ptr noundef nonnull align 8 dereferenceable(560) %this1)
  %mOutput13 = getelementptr inbounds %"class.Assimp::XFileExporter", ptr %this1, i32 0, i32 1
  %add.ptr14 = getelementptr inbounds i8, ptr %mOutput13, i64 16
  %startstr15 = getelementptr inbounds %"class.Assimp::XFileExporter", ptr %this1, i32 0, i32 8
  %call16 = call noundef nonnull align 8 dereferenceable(8) ptr @_ZStlsIcSt11char_traitsIcESaIcEERSt13basic_ostreamIT_T0_ES7_RKNSt7__cxx1112basic_stringIS4_S5_T1_EE(ptr noundef nonnull align 8 dereferenceable(8) %add.ptr14, ptr noundef nonnull align 8 dereferenceable(32) %startstr15)
  %call17 = call noundef nonnull align 8 dereferenceable(8) ptr @_ZStlsISt11char_traitsIcEERSt13basic_ostreamIcT_ES5_PKc(ptr noundef nonnull align 8 dereferenceable(8) %call16, ptr noundef @.str.7)
  %endstr18 = getelementptr inbounds %"class.Assimp::XFileExporter", ptr %this1, i32 0, i32 9
  %call19 = call noundef nonnull align 8 dereferenceable(8) ptr @_ZStlsIcSt11char_traitsIcESaIcEERSt13basic_ostreamIT_T0_ES7_RKNSt7__cxx1112basic_stringIS4_S5_T1_EE(ptr noundef nonnull align 8 dereferenceable(8) %call17, ptr noundef nonnull align 8 dereferenceable(32) %endstr18)
  ret void
}