; Function Attrs: mustprogress uwtable
define hidden void @_ZN6Assimp13XFileExporter9WriteFileEv(ptr noundef nonnull align 8 dereferenceable(560) %this) local_unnamed_addr #0 align 2 {
entry:
  %I = alloca %class.aiMatrix4x4t, align 4
  %mOutput = getelementptr inbounds i8, ptr %this, i64 8
  %vtable = load ptr, ptr %mOutput, align 8
  %vbase.offset.ptr = getelementptr i8, ptr %vtable, i64 -24
  %vbase.offset = load i64, ptr %vbase.offset.ptr, align 8
  %add.ptr = getelementptr inbounds i8, ptr %mOutput, i64 %vbase.offset
  %_M_flags.i = getelementptr inbounds i8, ptr %add.ptr, i64 24
  %0 = load i32, ptr %_M_flags.i, align 8
  %or.i.i.i = or i32 %0, 4
  store i32 %or.i.i.i, ptr %_M_flags.i, align 4
  %vtable3 = load ptr, ptr %mOutput, align 8
  %vbase.offset.ptr4 = getelementptr i8, ptr %vtable3, i64 -24
  %vbase.offset5 = load i64, ptr %vbase.offset.ptr4, align 8
  %add.ptr6 = getelementptr inbounds i8, ptr %mOutput, i64 %vbase.offset5
  %_M_precision.i = getelementptr inbounds i8, ptr %add.ptr6, i64 8
  store i64 9, ptr %_M_precision.i, align 8
  tail call void @_ZN6Assimp13XFileExporter11WriteHeaderEv(ptr noundef nonnull align 8 dereferenceable(560) %this)
  %add.ptr9 = getelementptr inbounds i8, ptr %this, i64 24
  %startstr = getelementptr inbounds i8, ptr %this, i64 496
  %call10 = tail call noundef nonnull align 8 dereferenceable(8) ptr @_ZStlsIcSt11char_traitsIcESaIcEERSt13basic_ostreamIT_T0_ES7_RKNSt7__cxx1112basic_stringIS4_S5_T1_EE(ptr noundef nonnull align 8 dereferenceable(8) %add.ptr9, ptr noundef nonnull align 8 dereferenceable(32) %startstr)
  %call11 = tail call noundef nonnull align 8 dereferenceable(8) ptr @_ZStlsISt11char_traitsIcEERSt13basic_ostreamIcT_ES5_PKc(ptr noundef nonnull align 8 dereferenceable(8) %call10, ptr noundef nonnull @.str.6)
  %endstr = getelementptr inbounds i8, ptr %this, i64 528
  %call12 = tail call noundef nonnull align 8 dereferenceable(8) ptr @_ZStlsIcSt11char_traitsIcESaIcEERSt13basic_ostreamIT_T0_ES7_RKNSt7__cxx1112basic_stringIS4_S5_T1_EE(ptr noundef nonnull align 8 dereferenceable(8) %call11, ptr noundef nonnull align 8 dereferenceable(32) %endstr)
  %call.i = tail call noundef nonnull align 8 dereferenceable(32) ptr @_ZNSt7__cxx1112basic_stringIcSt11char_traitsIcESaIcEE6appendEPKc(ptr noundef nonnull align 8 dereferenceable(32) %startstr, ptr noundef nonnull @.str.103)
  store float 1.000000e+00, ptr %I, align 4
  %a2.i = getelementptr inbounds i8, ptr %I, i64 4
  %b2.i = getelementptr inbounds i8, ptr %I, i64 20
  call void @llvm.memset.p0.i64(ptr noundef nonnull align 4 dereferenceable(16) %a2.i, i8 0, i64 16, i1 false)
  store float 1.000000e+00, ptr %b2.i, align 4
  %b3.i = getelementptr inbounds i8, ptr %I, i64 24
  %c3.i = getelementptr inbounds i8, ptr %I, i64 40
  call void @llvm.memset.p0.i64(ptr noundef nonnull align 4 dereferenceable(16) %b3.i, i8 0, i64 16, i1 false)
  store float 1.000000e+00, ptr %c3.i, align 4
  %c4.i = getelementptr inbounds i8, ptr %I, i64 44
  %d4.i = getelementptr inbounds i8, ptr %I, i64 60
  call void @llvm.memset.p0.i64(ptr noundef nonnull align 4 dereferenceable(16) %c4.i, i8 0, i64 16, i1 false)
  store float 1.000000e+00, ptr %d4.i, align 4
  call void @_ZN6Assimp13XFileExporter19WriteFrameTransformER12aiMatrix4x4tIfE(ptr noundef nonnull align 8 dereferenceable(560) %this, ptr noundef nonnull align 4 dereferenceable(64) %I)
  %mScene = getelementptr inbounds i8, ptr %this, i64 480
  %1 = load ptr, ptr %mScene, align 8
  %mRootNode = getelementptr inbounds i8, ptr %1, i64 8
  %2 = load ptr, ptr %mRootNode, align 8
  tail call void @_ZN6Assimp13XFileExporter9WriteNodeEP6aiNode(ptr noundef nonnull align 8 dereferenceable(560) %this, ptr noundef %2)
  %call.i2 = tail call noundef i64 @_ZNKSt7__cxx1112basic_stringIcSt11char_traitsIcESaIcEE6lengthEv(ptr noundef nonnull align 8 dereferenceable(32) %startstr) #11
  %sub.i = add i64 %call.i2, -2
  %call3.i = tail call noundef nonnull align 8 dereferenceable(32) ptr @_ZNSt7__cxx1112basic_stringIcSt11char_traitsIcESaIcEE5eraseEmm(ptr noundef nonnull align 8 dereferenceable(32) %startstr, i64 noundef %sub.i, i64 noundef -1)
  %call16 = tail call noundef nonnull align 8 dereferenceable(8) ptr @_ZStlsIcSt11char_traitsIcESaIcEERSt13basic_ostreamIT_T0_ES7_RKNSt7__cxx1112basic_stringIS4_S5_T1_EE(ptr noundef nonnull align 8 dereferenceable(8) %add.ptr9, ptr noundef nonnull align 8 dereferenceable(32) %startstr)
  %call17 = tail call noundef nonnull align 8 dereferenceable(8) ptr @_ZStlsISt11char_traitsIcEERSt13basic_ostreamIcT_ES5_PKc(ptr noundef nonnull align 8 dereferenceable(8) %call16, ptr noundef nonnull @.str.7)
  %call19 = tail call noundef nonnull align 8 dereferenceable(8) ptr @_ZStlsIcSt11char_traitsIcESaIcEERSt13basic_ostreamIT_T0_ES7_RKNSt7__cxx1112basic_stringIS4_S5_T1_EE(ptr noundef nonnull align 8 dereferenceable(8) %call17, ptr noundef nonnull align 8 dereferenceable(32) %endstr)
  ret void
}